; Function Attrs: nounwind uwtable
define internal { i64, i64 } @js_os_close(ptr noundef %0, i64 %1, i64 %2, i32 %3, ptr nocapture noundef readonly %4) #0 {
  %6 = alloca i32, align 4
  %7 = load i64, ptr %4, align 8
  %8 = getelementptr inbounds i8, ptr %4, i64 8
  %9 = load i64, ptr %8, align 8
  %10 = call i32 @JS_ToInt32(ptr noundef %0, ptr noundef nonnull %6, i64 %7, i64 %9) #29
  %.not = icmp eq i32 %10, 0
  br i1 %.not, label %11, label %19

11:                                               ; preds = %5
  %12 = load i32, ptr %6, align 4
  %13 = call i32 @close(i32 noundef %12) #29
  %14 = icmp eq i32 %13, -1
  br i1 %14, label %15, label %js_get_errno.exit

15:                                               ; preds = %11
  %16 = tail call ptr @__errno_location() #28
  %17 = load i32, ptr %16, align 4
  %18 = sub i32 0, %17
  br label %js_get_errno.exit

js_get_errno.exit:                                ; preds = %11, %15
  %.0.i.in = phi i32 [ %18, %15 ], [ %13, %11 ]
  %.0.i = zext i32 %.0.i.in to i64
  br label %19

19:                                               ; preds = %5, %js_get_errno.exit
  %.sroa.03.0 = phi i64 [ %.0.i, %js_get_errno.exit ], [ 0, %5 ]
  %.sroa.3.sroa.2.0 = phi i64 [ 0, %js_get_errno.exit ], [ 6, %5 ]
  %.fca.0.insert = insertvalue { i64, i64 } poison, i64 %.sroa.03.0, 0
  %.fca.1.insert = insertvalue { i64, i64 } %.fca.0.insert, i64 %.sroa.3.sroa.2.0, 1
  ret { i64, i64 } %.fca.1.insert
}